target datalayout = "e-m:e-p270:32:32-p271:32:32-p272:64:64-i64:64-i128:128-f80:128-n8:16:32:64-S128"
target triple = "x86_64-pc-linux-gnu"

%struct.conn = type { ptr, i32, i8, i8, i8, i8, i8, i8, i8, i8, ptr, i32, i32, i32, %struct.event, i16, i16, ptr, ptr, i32, i32, ptr, ptr, ptr, i32, ptr, i32, i32, i32, i32, i32, i32, i32, %struct.sockaddr_in6, i32, i8, %struct.anon.8, %union.protocol_binary_request_header, i64, i64, i16, i32, i32, ptr, ptr, ptr, ptr, ptr, ptr }
%struct.event = type { %struct.event_callback, %union.anon.0, i32, ptr, %union.anon.2, i16, i16, %struct.timeval }
%struct.event_callback = type { %struct.anon, i16, i8, i8, %union.anon, ptr }
%struct.anon = type { ptr, ptr }
%union.anon = type { ptr }
%union.anon.0 = type { %struct.anon.1 }
%struct.anon.1 = type { ptr, ptr }
%union.anon.2 = type { %struct.anon.3 }
%struct.anon.3 = type { %struct.anon.4, %struct.timeval }
%struct.anon.4 = type { ptr, ptr }
%struct.timeval = type { i64, i64 }
%struct.sockaddr_in6 = type { i16, i16, i32, %struct.in6_addr, i32 }
%struct.in6_addr = type { %union.anon.7 }
%union.anon.7 = type { [4 x i32] }
%struct.anon.8 = type { ptr, i64, i64 }
%union.protocol_binary_request_header = type { %struct.anon.9 }
%struct.anon.9 = type { i8, i8, i16, i8, i8, i16, i32, i32, i64 }

; Function Attrs: nounwind uwtable
define internal void @write_bin_response(ptr noundef %0, ptr noundef %1, i32 noundef %2, i32 noundef %3, i32 noundef %4) #0 {
  %6 = alloca ptr, align 8
  %7 = alloca ptr, align 8
  %8 = alloca i32, align 4
  %9 = alloca i32, align 4
  %10 = alloca i32, align 4
  %11 = alloca ptr, align 8
  store ptr %0, ptr %6, align 8, !tbaa !4
  store ptr %1, ptr %7, align 8, !tbaa !70
  store i32 %2, ptr %8, align 4, !tbaa !30
  store i32 %3, ptr %9, align 4, !tbaa !30
  store i32 %4, ptr %10, align 4, !tbaa !30
  %12 = load ptr, ptr %6, align 8, !tbaa !4
  %13 = getelementptr inbounds nuw %struct.conn, ptr %12, i32 0, i32 35
  %14 = load i8, ptr %13, align 4, !tbaa !79, !range !58, !noundef !59
  %15 = trunc i8 %14 to i1
  br i1 %15, label %16, label %28

16:                                               ; preds = %5
  %17 = load ptr, ptr %6, align 8, !tbaa !4
  %18 = getelementptr inbounds nuw %struct.conn, ptr %17, i32 0, i32 40
  %19 = load i16, ptr %18, align 8, !tbaa !53
  %20 = sext i16 %19 to i32
  %21 = icmp eq i32 %20, 0
  br i1 %21, label %28, label %22

22:                                               ; preds = %16
  %23 = load ptr, ptr %6, align 8, !tbaa !4
  %24 = getelementptr inbounds nuw %struct.conn, ptr %23, i32 0, i32 40
  %25 = load i16, ptr %24, align 8, !tbaa !53
  %26 = sext i16 %25 to i32
  %27 = icmp eq i32 %26, 12
  br i1 %27, label %28, label %45

28:                                               ; preds = %22, %16, %5
  %29 = load ptr, ptr %6, align 8, !tbaa !4
  %30 = load i32, ptr %8, align 4, !tbaa !30
  %31 = trunc i32 %30 to i8
  %32 = load i32, ptr %9, align 4, !tbaa !30
  %33 = trunc i32 %32 to i16
  %34 = load i32, ptr %10, align 4, !tbaa !30
  call void @add_bin_header(ptr noundef %29, i16 noundef zeroext 0, i8 noundef zeroext %31, i16 noundef zeroext %33, i32 noundef %34)
  call void @llvm.lifetime.start.p0(i64 8, ptr %11) #8
  %35 = load ptr, ptr %6, align 8, !tbaa !4
  %36 = getelementptr inbounds nuw %struct.conn, ptr %35, i32 0, i32 21
  %37 = load ptr, ptr %36, align 8, !tbaa !66
  store ptr %37, ptr %11, align 8, !tbaa !82
  %38 = load i32, ptr %10, align 4, !tbaa !30
  %39 = icmp sgt i32 %38, 0
  br i1 %39, label %40, label %44

40:                                               ; preds = %28
  %41 = load ptr, ptr %11, align 8, !tbaa !82
  %42 = load ptr, ptr %7, align 8, !tbaa !70
  %43 = load i32, ptr %10, align 4, !tbaa !30
  call void @resp_add_iov(ptr noundef %41, ptr noundef %42, i32 noundef %43)
  br label %44

44:                                               ; preds = %40, %28
  call void @llvm.lifetime.end.p0(i64 8, ptr %11) #8
  br label %45

45:                                               ; preds = %44, %22
  %46 = load ptr, ptr %6, align 8, !tbaa !4
  call void @conn_set_state(ptr noundef %46, i32 noundef 1)
  ret void
}