; Function Attrs: nounwind uwtable
define internal fastcc void @write_bin_response(ptr noundef %0, ptr noundef %1, i32 noundef range(i32 0, 14) %2) unnamed_addr #0 {
  %4 = getelementptr inbounds nuw i8, ptr %0, i64 308
  %5 = load i8, ptr %4, align 4, !tbaa !56, !range !53, !noundef !54
  %6 = trunc nuw i8 %5 to i1
  br i1 %6, label %7, label %10

7:                                                ; preds = %3
  %8 = getelementptr inbounds nuw i8, ptr %0, i64 376
  %9 = load i16, ptr %8, align 8, !tbaa !48
  switch i16 %9, label %14 [
    i16 0, label %10
    i16 12, label %10
  ]

10:                                               ; preds = %7, %7, %3
  tail call fastcc void @add_bin_header(ptr noundef nonnull %0, i16 noundef zeroext 0, i8 noundef zeroext 0, i16 noundef zeroext 0, i32 noundef %2)
  %.not = icmp eq i32 %2, 0
  br i1 %.not, label %14, label %11

11:                                               ; preds = %10
  %12 = getelementptr inbounds nuw i8, ptr %0, i64 208
  %13 = load ptr, ptr %12, align 8, !tbaa !60
  tail call void @resp_add_iov(ptr noundef %13, ptr noundef %1, i32 noundef %2) #11
  br label %14

14:                                               ; preds = %10, %11, %7
  tail call void @conn_set_state(ptr noundef nonnull %0, i32 noundef 1) #11
  ret void
}